	.file	"db_select_compare.c"
	.text
	.comm	_activeUser, 524, 5
	.globl	_compareByUserID
	.def	_compareByUserID;	.scl	2;	.type	32;	.endef
_compareByUserID:
LFB3:
	.cfi_startproc
	pushl	%ebp
	.cfi_def_cfa_offset 8
	.cfi_offset 5, -8
	movl	%esp, %ebp
	.cfi_def_cfa_register 5
	subl	$40, %esp
	movl	8(%ebp), %eax
	movl	%eax, -12(%ebp)
	movl	-12(%ebp), %eax
	movl	12(%ebp), %edx
	movl	%edx, 4(%esp)
	movl	%eax, (%esp)
	call	_strcmp
	leave
	.cfi_restore 5
	.cfi_def_cfa 4, 4
	ret
	.cfi_endproc
LFE3:
	.globl	_compareByUsername
	.def	_compareByUsername;	.scl	2;	.type	32;	.endef
_compareByUsername:
LFB4:
	.cfi_startproc
	pushl	%ebp
	.cfi_def_cfa_offset 8
	.cfi_offset 5, -8
	movl	%esp, %ebp
	.cfi_def_cfa_register 5
	subl	$40, %esp
	movl	8(%ebp), %eax
	movl	%eax, -12(%ebp)
	movl	-12(%ebp), %eax
	leal	316(%eax), %edx
	movl	12(%ebp), %eax
	movl	%eax, 4(%esp)
	movl	%edx, (%esp)
	call	_strcmp
	leave
	.cfi_restore 5
	.cfi_def_cfa 4, 4
	ret
	.cfi_endproc
LFE4:
	.globl	_compareByPassword
	.def	_compareByPassword;	.scl	2;	.type	32;	.endef
_compareByPassword:
LFB5:
	.cfi_startproc
	pushl	%ebp
	.cfi_def_cfa_offset 8
	.cfi_offset 5, -8
	movl	%esp, %ebp
	.cfi_def_cfa_register 5
	subl	$40, %esp
	movl	8(%ebp), %eax
	movl	%eax, -12(%ebp)
	movl	-12(%ebp), %eax
	leal	416(%eax), %edx
	movl	12(%ebp), %eax
	movl	%eax, 4(%esp)
	movl	%edx, (%esp)
	call	_strcmp
	leave
	.cfi_restore 5
	.cfi_def_cfa 4, 4
	ret
	.cfi_endproc
LFE5:
	.globl	_compareSelectEverything
	.def	_compareSelectEverything;	.scl	2;	.type	32;	.endef
_compareSelectEverything:
LFB6:
	.cfi_startproc
	pushl	%ebp
	.cfi_def_cfa_offset 8
	.cfi_offset 5, -8
	movl	%esp, %ebp
	.cfi_def_cfa_register 5
	movl	$0, %eax
	popl	%ebp
	.cfi_restore 5
	.cfi_def_cfa 4, 4
	ret
	.cfi_endproc
LFE6:
	.ident	"GCC: (MinGW.org GCC Build-2) 9.2.0"
	.def	_strcmp;	.scl	2;	.type	32;	.endef
